target datalayout = "e-m:e-p270:32:32-p271:32:32-p272:64:64-i64:64-i128:128-f80:128-n8:16:32:64-S128"
target triple = "x86_64-pc-linux-gnu"

%"struct.std::_Vector_base.9" = type { %"struct.std::_Vector_base<char, std::allocator<char>>::_Vector_impl" }
%"struct.std::_Vector_base<char, std::allocator<char>>::_Vector_impl" = type { %"struct.std::_Vector_base<char, std::allocator<char>>::_Vector_impl_data" }
%"struct.std::_Vector_base<char, std::allocator<char>>::_Vector_impl_data" = type { ptr, ptr, ptr }
%"class.cv::gapi::s11n::ByteMemoryInStream" = type { %"struct.cv::gapi::s11n::IIStream", ptr, i64 }
%"struct.cv::gapi::s11n::IIStream" = type { ptr }

; Function Attrs: mustprogress nounwind uwtable
define linkonce_odr hidden void @_ZN2cv4util23suppress_unused_warningIbEEvRKT_(ptr noundef nonnull align 1 dereferenceable(1) %0) #9 comdat {
  %2 = alloca ptr, align 8
  store ptr %0, ptr %2, align 8, !tbaa !207
  ret void
}

; Function Attrs: mustprogress nounwind uwtable
define linkonce_odr hidden noundef nonnull align 1 dereferenceable(1) ptr @_ZNKSt6vectorIcSaIcEEixEm(ptr noundef nonnull align 8 dereferenceable(24) %0, i64 noundef %1) #9 comdat align 2 {
  %3 = alloca ptr, align 8
  %4 = alloca i64, align 8
  store ptr %0, ptr %3, align 8, !tbaa !141
  store i64 %1, ptr %4, align 8, !tbaa !128
  %5 = load ptr, ptr %3, align 8
  %6 = getelementptr inbounds nuw %"struct.std::_Vector_base.9", ptr %5, i32 0, i32 0
  %7 = getelementptr inbounds nuw %"struct.std::_Vector_base<char, std::allocator<char>>::_Vector_impl_data", ptr %6, i32 0, i32 0
  %8 = load ptr, ptr %7, align 8, !tbaa !143
  %9 = load i64, ptr %4, align 8, !tbaa !128
  %10 = getelementptr inbounds nuw i8, ptr %8, i64 %9
  ret ptr %10
}

; Function Attrs: mustprogress nounwind uwtable
define linkonce_odr hidden void @_ZN2cv4gapi4s11n18ByteMemoryInStream5checkEm(ptr noundef nonnull align 8 dereferenceable(24) %0, i64 noundef %1) #9 comdat align 2 {
  %3 = alloca ptr, align 8
  %4 = alloca i64, align 8
  %5 = alloca i8, align 1
  store ptr %0, ptr %3, align 8, !tbaa !366
  store i64 %1, ptr %4, align 8, !tbaa !128
  call void @llvm.lifetime.start.p0(i64 1, ptr %5) #3
  store i8 0, ptr %5, align 1, !tbaa !199
  call void @_ZN2cv4util23suppress_unused_warningIbEEvRKT_(ptr noundef nonnull align 1 dereferenceable(1) %5)
  call void @llvm.lifetime.end.p0(i64 1, ptr %5) #3
  ret void
}

; Function Attrs: mustprogress uwtable
define noundef nonnull align 8 dereferenceable(8) ptr @_ZN2cv4gapi4s11n18ByteMemoryInStreamrsERc(ptr noundef nonnull align 8 dereferenceable(24) %0, ptr noundef nonnull align 1 dereferenceable(1) %1) unnamed_addr #4 align 2 {
  %3 = alloca ptr, align 8
  %4 = alloca ptr, align 8
  store ptr %0, ptr %3, align 8, !tbaa !366
  store ptr %1, ptr %4, align 8, !tbaa !72
  %5 = load ptr, ptr %3, align 8
  call void @_ZN2cv4gapi4s11n18ByteMemoryInStream5checkEm(ptr noundef nonnull align 8 dereferenceable(24) %5, i64 noundef 1)
  %6 = getelementptr inbounds nuw %"class.cv::gapi::s11n::ByteMemoryInStream", ptr %5, i32 0, i32 1
  %7 = load ptr, ptr %6, align 8, !tbaa !371
  %8 = getelementptr inbounds nuw %"class.cv::gapi::s11n::ByteMemoryInStream", ptr %5, i32 0, i32 2
  %9 = load i64, ptr %8, align 8, !tbaa !368
  %10 = add i64 %9, 1
  store i64 %10, ptr %8, align 8, !tbaa !368
  %11 = call noundef nonnull align 1 dereferenceable(1) ptr @_ZNKSt6vectorIcSaIcEEixEm(ptr noundef nonnull align 8 dereferenceable(24) %7, i64 noundef %9) #3
  %12 = load i8, ptr %11, align 1, !tbaa !146
  %13 = load ptr, ptr %4, align 8, !tbaa !72
  store i8 %12, ptr %13, align 1, !tbaa !146
  ret ptr %5
}